    0  00000 0000            psect  cdi_bpsys,$2,$1,0,0,$0050 
    1  00000 4d2e credits:   dc.w   $4d2e      
    2  00002 4172            dc.w   $4172      
    3  00004 6d65            dc.w   $6d65      
    4  00006 6e64            bgt.s  L0006c     
    5  00008 6172            bsr.s  L0007c     
    6  0000a 697a            bvs.s  L00086     
    7  0000c 2c4c            movea.l a4,a6      
    8  0000e 2e42            movea.l d2,sp      
    9  00010 6172            bsr.s  L00084     
   10  00012 6e65            dc.w   $6e65      
   11  00014 732c            dc.w   $732c      
   12  00016 4a2e            tst.b  U04b65(a6) 
   13  0001a 7373            dc.w   $7373      
   14  0001c 656c            bcs.s  L0008a     
   15  0001e 6d61            dc.w   $6d61      
   16  00020 6e2c            bgt.s  L0004e     
   17  00022 532e            subq.b #1,U04d63(a6) 
   18  00026 436c            dc.w   $436c      
   19  00028 656c            bcs.s  L00096     
   20  0002a 6c61            dc.w   $6c61      
   21  0002c 6e2c            bgt.s  L0005a     
   22  0002e 522e            addq.b #1,U04d6f(a6) 
   23  00032 6f72            ble.s  L000a6     
   24  00034 652c            bcs.s  L00062     
   25  00036 542e            addq.b #2,U04e75(a6) 
   26  0003a 7474            moveq  #116,d2    
   27  0003c 2c4a            movea.l a2,a6      
   28  0003e 2e50            movea.l (a0),sp    
   29  00040 6965            dc.w   $6965      
   30  00042 7369            dc.w   $7369      
   31  00044 6e67            dc.w   $6e67      
   32  00046 2c4a            movea.l a2,a6      
   33  00048 2e52            movea.l (a2),sp    
   34  0004a 6f74            ble.s  L000c0     
   35  0004c 7465            moveq  #101,d2    
   36  0004e 7200 L0004e     moveq  #0,d1      
   37  00050 0008            dc.w   $8         
   38  00052 0032            ori.b  #$62,104(a2,d0.w) 
   39  00058 47fa init:      lea    state(pc),a3 
   40  0005a 0000 L0005a     equ    *-2        
   41  0005c 0c6b            cmpi.w #-16657,2(a3) 
   42  00062 6700 L00062     beq.w  L00080     
   43  00066 7000            moveq  #0,d0      
   44  00068 377c            move.w #-16657,2(a3) 
   45  0006c 0000 L0006c     equ    *-2        
   46  0006e 3740            move.w d0,0(a3)   
   47  00072 3740            move.w d0,6(a3)   
   48  00076 2740            move.l d0,14(a3)  
   49  0007a 377c            move.w #4641,4(a3) 
   50  0007c 0000 L0007c     equ    *-4        
   51  00080 4e75 L00080     rts               
   52  00082 222d set_stat:  move.l 8(a5),d1   
   53  00084 0000 L00084     equ    *-2        
   54  00086 0c41 L00086     cmpi.w #16896,d1  
   55  0008a 6520 L0008a     bcs.s  L000ac     
   56  0008c 0c41            cmpi.w #16916,d1  
   57  00090 641a            bcc.s  L000ac     
   58  00092 41fa            lea    drawControlArgs(pc),a0 
   59  00096 48d0 L00096     movem.l a1-a2/a4-a6/d0,(a0) 
   60  0009a 47fa            lea    function_table(pc),a3 
   61  0009e 92bc            sub.l  #16896,d1  
   62  000a4 307b            movea.w function_table(pc,d1.l),a0 
   63  000a6 0000 L000a6     equ    *-2        
   64  000a8 4efb            jmp    function_table(pc,a0.l) 
   65  000ac 206a L000ac     movea.l 70(a2),a0  
   66  000b0 4ed0            jmp    (a0)       
   67  000b2 206a get_stat:  movea.l 74(a2),a0  
   68  000b6 4ed0            jmp    (a0)       
   69  000b8 6100 close:     bsr.w  handle_close 
   70  000bc 4e75            rts               
   71
   72  000be 0000            ends              
   72
