    0  00000 0000            psect  fseek_c,0,0,0,0,fseek 
    1
    2  00000 4e55 fseek:     link.w a5,#0      
    3  00004 48e7            movem.l a0/a2-a3/d0-d1/d4-d5,-(sp) 
    4  00008 2440            movea.l d0,a2      
    5  0000a 2801            move.l d1,d4      
    6  0000c 200a            move.l a2,d0      
    7  0000e 6700            beq.w  L000e8     
    8  00012 7003            moveq  #3,d0      
    9  00014 c06a            and.w  12(a2),d0  
   10  00018 6700            beq.w  L000e8     
   11  0001c 302a            move.w 12(a2),d0  
   12  00020 48c0            ext.l  d0         
   13  00022 0800            btst.l #15,d0     
   14  00026 660a            bne.s  L00032     
   15  00028 200a            move.l a2,d0      
   16  0002a 6100            bsr.w  _setbase   
   17  0002e 6000            bra.w  L000ca     
   18  00032 302a L00032     move.w 12(a2),d0  
   19  00036 48c0            ext.l  d0         
   20  00038 0800            btst.l #8,d0      
   21  0003c 6722            beq.s  L00060     
   22  0003e 200a            move.l a2,d0      
   23  00040 6100            bsr.w  fflush     
   24  00044 026a            andi.w #$feff,12(a2) 
   25  0004a 202a            move.l 4(a2),d0   
   26  0004e 322a            move.w 18(a2),d1  
   27  00052 48c1            ext.l  d1         
   28  00054 d081            add.l  d1,d0      
   29  00056 2540            move.l d0,8(a2)   
   30  0005a 2480            move.l d0,(a2)    
   31  0005c 6000            bra.w  L000ca     
   32  00060 2012 L00060     move.l (a2),d0    
   33  00062 b0aa            cmp.l  8(a2),d0   
   34  00066 6462            bcc.s  L000ca     
   35  00068 2a04            move.l d4,d5      
   36  0006a 603a            bra.s  L000a6     
   37  0006c 200a L0006c     move.l a2,d0      
   38  0006e 6100            bsr.w  ftell      
   39  00072 9a80            sub.l  d0,d5      
   40  00074 4a85 L00074     tst.l  d5         
   41  00076 6c06            bge.s  L0007e     
   42  00078 2005            move.l d5,d0      
   43  0007a 4480            neg.l  d0         
   44  0007c 6002            bra.s  L00080     
   45  0007e 2005 L0007e     move.l d5,d0      
   46  00080 322a L00080     move.w 18(a2),d1  
   47  00084 48c1            ext.l  d1         
   48  00086 b081            cmp.l  d1,d0      
   49  00088 6e2c            bgt.s  L000b6     
   50  0008a 2012            move.l (a2),d0    
   51  0008c d085            add.l  d5,d0      
   52  0008e 2640            movea.l d0,a3      
   53  00090 b7ea            cmpa.l 4(a2),a3   
   54  00094 6520            bcs.s  L000b6     
   55  00096 b7ea            cmpa.l 8(a2),a3   
   56  0009a 641a            bcc.s  L000b6     
   57  0009c 248b            move.l a3,(a2)    
   58  0009e 026a            andi.w #$ffef,12(a2) 
   59  000a4 6046            bra.s  L000ec     
   60  000a6 202f L000a6     move.l 36(sp),d0  
   61  000aa 4a80            tst.l  d0         
   62  000ac 67be            beq.s  L0006c     
   63  000ae 0c80            cmpi.l #1,d0      
   64  000b4 67be            beq.s  L00074     
   65  000b6 7001 L000b6     moveq  #1,d0      
   66  000b8 b0af            cmp.l  36(sp),d0  
   67  000bc 6608            bne.s  L000c6     
   68  000be 202a            move.l 8(a2),d0   
   69  000c2 9092            sub.l  (a2),d0    
   70  000c4 9880            sub.l  d0,d4      
   71  000c6 24aa L000c6     move.l 8(a2),(a2) 
   72  000ca 026a L000ca     andi.w #$ffef,12(a2) 
   73  000d0 2f2f            move.l 36(sp),-(sp) 
   74  000d4 2204            move.l d4,d1      
   75  000d6 306a            movea.w 14(a2),a0  
   76  000da 2008            move.l a0,d0      
   77  000dc 6100            bsr.w  lseek      
   78  000e0 588f            addq.l #4,sp      
   79  000e2 72ff            moveq  #255,d1    
   80  000e4 b280            cmp.l  d0,d1      
   81  000e6 6604            bne.s  L000ec     
   82  000e8 70ff L000e8     moveq  #255,d0    
   83  000ea 6002            bra.s  L000ee     
   84  000ec 7000 L000ec     moveq  #0,d0      
   85  000ee 4ced L000ee     movem.l -20(a5),a0/a2-a3/d4-d5 
   86  000f4 4e5d            unlk   a5         
   87  000f6 4e75            rts               
   88  000f8 4e55 rewind:    link.w a5,#0      
   89  000fc 48e7            movem.l d0-d1,-(sp) 
   90  00100 42a7            clr.l  -(sp)      
   91  00102 7200            moveq  #0,d1      
   92  00104 202f            move.l 4(sp),d0   
   93  00108 6100            bsr.w  fseek      
   94  0010c 588f            addq.l #4,sp      
   95  0010e 4ced            movem.l -4(a5),d1  
   96  00114 4e5d            unlk   a5         
   97  00116 4e75            rts               
   98
   99  00118 0000            ends              
   99
