    0  00000 0000            psect  misc_a,0,0,0,0,pause 
    1
    2  00000 4e55 pause:     link.w a5,#0      
    3  00004 48e7            movem.l a0/d1-d2,-(sp) 
    4  00008 7000            moveq  #0,d0      
    5  0000a 4e40            os9    F$Sleep    
    6  0000e 6000            bra.w  _sysret    
    7  00012 4e55 crc:       link.w a5,#0      
    8  00016 48e7            movem.l a0/d1-d2,-(sp) 
    9  0001a 206d            movea.l 8(a5),a0   
   10  0001e 2210            move.l (a0),d1    
   11  00020 2040            movea.l d0,a0      
   12  00022 2017            move.l (sp),d0    
   13  00024 4e40            os9    F$CRC      
   14  00028 6500            bcs.w  _os9err    
   15  0002c 206d            movea.l 8(a5),a0   
   16  00030 2081            move.l d1,(a0)    
   17  00032 6000            bra.w  _sysret0   
   18  00036 4e55 prerr:     link.w a5,#0      
   19  0003a 48e7            movem.l a0/d1-d2,-(sp) 
   20  0003e 4e40            os9    F$PErr     
   21  00042 6000            bra.w  _sysret    
   22  00046 e188 sleep:     lsl.l  #8,d0      
   23  00048 08c0            bset.l #31,d0     
   24  0004c 4e55 tsleep:    link.w a5,#0      
   25  00050 48e7            movem.l a0/d1-d2,-(sp) 
   26  00054 4e40            os9    F$Sleep    
   27  00058 6000            bra.w  _sysret    
   28  0005c 4e55 _cmpnam:   link.w a5,#0      
   29  00060 48e7            movem.l a0-a1,-(sp) 
   30  00064 2041            movea.l d1,a0      
   31  00066 2240            movea.l d0,a1      
   32  00068 222d            move.l 8(a5),d1   
   33  0006c 4e40            os9    F$CmpNam   
   34  00070 6560            bcs.s  L000d2     
   35  00072 7000            moveq  #0,d0      
   36  00074 6068            bra.s  L000de     
   37  00076 4e55 _prsnam:   link.w a5,#0      
   38  0007a 48e7            movem.l a0-a1/d0-d1,-(sp) 
   39  0007e 2040            movea.l d0,a0      
   40  00080 4e40            os9    F$PrsNam   
   41  00084 6454            bcc.s  L000da     
   42  00086 604a            bra.s  L000d2     
   43  00088 4e55 _parsepath: link.w a5,#0      
   44  0008c 48e7            movem.l a0-a1/d0-d1,-(sp) 
   45  00090 2040            movea.l d0,a0      
   46  00092 2248            movea.l a0,a1      
   47  00094 1019 L00094     move.b (a1)+,d0   
   48  00096 0c00            cmpi.b #47,d0     
   49  0009a 671a            beq.s  L000b6     
   50  0009c 0c00            cmpi.b #46,d0     
   51  000a0 6622            bne.s  L000c4     
   52  000a2 0c19 L000a2     cmpi.b #46,(a1)+  
   53  000a6 67fa            beq.s  L000a2     
   54  000a8 1021            move.b -(a1),d0   
   55  000aa 672e            beq.s  L000da     
   56  000ac 0c00            cmpi.b #47,d0     
   57  000b0 6612            bne.s  L000c4     
   58  000b2 2049            movea.l a1,a0      
   59  000b4 60de            bra.s  L00094     
   60  000b6 1019 L000b6     move.b (a1)+,d0   
   61  000b8 0c00            cmpi.b #47,d0     
   62  000bc 6706            beq.s  L000c4     
   63  000be 0c00            cmpi.b #46,d0     
   64  000c2 67de            beq.s  L000a2     
   65  000c4 4e40 L000c4     os9    F$PrsNam   
   66  000c8 6508            bcs.s  L000d2     
   67  000ca 4a00            tst.b  d0         
   68  000cc 670c            beq.s  L000da     
   69  000ce 2049            movea.l a1,a0      
   70  000d0 60c2            bra.s  L00094     
   71  000d2 2d41 L000d2     move.l d1,errno(a6) 
   72  000d6 70ff            moveq  #255,d0    
   73  000d8 6004            bra.s  L000de     
   74  000da 2009 L000da     move.l a1,d0      
   75  000dc 9097            sub.l  (sp),d0    
   76  000de 4ced L000de     movem.l -12(a5),a0-a1/d1 
   77  000e4 4e5d            unlk   a5         
   78  000e6 4e75            rts               
   79  000e8 4e55 _mkdata_module: link.w a5,#0      
   80  000ec 48e7            movem.l a0/d1-d2,-(sp) 
   81  000f0 48e7            movem.l a1-a2/d3-d4,-(sp) 
   82  000f4 242d            move.l 12(a5),d2  
   83  000f8 0802            btst.l #15,d2     
   84  000fc 6708            beq.s  L00106     
   85  000fe 262d            move.l 16(a5),d3  
   86  00102 282d            move.l 20(a5),d4  
   87  00106 2040 L00106     movea.l d0,a0      
   88  00108 2001            move.l d1,d0      
   89  0010a 222d            move.l 8(a5),d1   
   90  0010e 4e40            os9    F$DatMod   
   91  00112 6502            bcs.s  L00116     
   92  00114 200a            move.l a2,d0      
   93  00116 4cdf L00116     movem.l (sp)+,a1-a2/d3-d4 
   94  0011a 6000            bra.w  _sysret    
   95  0011e 4e55 _get_module_dir: link.w a5,#0      
   96  00122 48e7            movem.l a0/d1-d2,-(sp) 
   97  00126 2040            movea.l d0,a0      
   98  00128 4e40            os9    F$GModDr   
   99  0012c 6500            bcs.w  _os9err    
  100  00130 2001            move.l d1,d0      
  101  00132 6000            bra.w  _sysret    
  102  00136 4e55 _get_process_table: link.w a5,#0      
  103  0013a 48e7            movem.l a0/d1-d2,-(sp) 
  104  0013e 2040            movea.l d0,a0      
  105  00140 4e40            os9    F$GPrDBT   
  106  00144 6500            bcs.w  _os9err    
  107  00148 2001            move.l d1,d0      
  108  0014a 6000            bra.w  _sysret    
  109  0014e 4e55 _get_process_desc: link.w a5,#0      
  110  00152 48e7            movem.l a0/d1-d2,-(sp) 
  111  00156 206d            movea.l 8(a5),a0   
  112  0015a 4e40            os9    F$GPrDsc   
  113  0015e 6000            bra.w  _sysret    
  114  00162 4e55 _setcrc:   link.w a5,#0      
  115  00166 48e7            movem.l a0/d1-d2,-(sp) 
  116  0016a 2040            movea.l d0,a0      
  117  0016c 4e40            os9    F$SetCRC   
  118  00170 6000            bra.w  _sysret    
  119  00174 4e55 _getsys:   link.w a5,#0      
  120  00178 48e7            movem.l a0/d1-d2,-(sp) 
  121  0017c 08c1            bset.l #31,d1     
  122  00180 600c            bra.s  L0018e     
  123  00182 4e55 _setsys:   link.w a5,#0      
  124  00186 48e7            movem.l a0/d1-d2,-(sp) 
  125  0018a 242d            move.l 8(a5),d2   
  126  0018e 4e40 L0018e     os9    F$SetSys   
  127  00192 6500            bcs.w  _os9err    
  128  00196 2002            move.l d2,d0      
  129  00198 6000            bra.w  _sysret    
  130  0019c 4e55 _suspend:  link.w a5,#0      
  131  001a0 48e7            movem.l a0/d1-d2,-(sp) 
  132  001a4 4e40            os9    F$SSpd     
  133  001a8 6000            bra.w  _sysret    
  134  001ac 4e55 _sysdbg:   link.w a5,#0      
  135  001b0 4e40            os9    F$SysDbg   
  136  001b4 4e5d            unlk   a5         
  137  001b6 4e75            rts               
  138  001b8 4e55 _cpymem:   link.w a5,#0      
  139  001bc 48e7            movem.l a0/d1-d2,-(sp) 
  140  001c0 2f09            move.l a1,-(sp)   
  141  001c2 206d            movea.l 8(a5),a0   
  142  001c6 226d            movea.l 12(a5),a1  
  143  001ca 4e40            os9    F$CpyMem   
  144  001ce 225f            movea.l (sp)+,a1   
  145  001d0 6000            bra.w  _sysret    
  146
  147  001d4 0000            ends              
  147
