    0  00000 0000            psect  os9exec_c,0,0,0,0,L00000 
    1
    2
    3 * Uninitialized Data (Class "D")
    4
    5  00000 0000            vsect             
    6  00000 0000 D00000     ds.b   4          
    7
    8
    9  00000 0000            ends              
   10
   11  00000 4e55 L00000     link.w a5,#0      
   12  00002 0000 L00002     equ    *-2        
   13  00004 48e7 L00004     movem.l a2-a3/d0-d1,-(sp) 
   14  00008 2440            movea.l d0,a2      
   15  0000a 2641            movea.l d1,a3      
   16  0000c 14db L0000c     move.b (a3)+,(a2)+ 
   17  0000e 66fc            bne.s  L0000c     
   18  00010 157c            move.b #32,-1(a2) 
   19  00016 200a            move.l a2,d0      
   20  00018 4ced            movem.l -8(a5),a2-a3 
   21  0001e 4e5d            unlk   a5         
   22  00020 4e75            rts               
   23  00022 48e7 L00022     movem.l a0/a2,-(sp) 
   24  00026 4e40            os9    F$SRqMem   
   25  0002a 650c            bcs.s  L00038     
   26  0002c 2041            movea.l d1,a0      
   27  0002e 2080            move.l d0,(a0)    
   28  00030 200a            move.l a2,d0      
   29  00032 4cdf L00032     movem.l (sp)+,a0/a2 
   30  00036 4e75            rts               
   31  00038 70ff L00038     moveq  #255,d0    
   32  0003a 2d41            move.l d1,errno(a6) 
   33  0003e 60f2            bra.s  L00032     
   34  00040 2f0a L00040     move.l a2,-(sp)   
   35  00042 2441            movea.l d1,a2      
   36  00044 4e40            os9    F$SRtMem   
   37  00048 245f            movea.l (sp)+,a2   
   38  0004a 4e75            rts               
   39  0004c 4e55 L0004c     link.w a5,#0      
   40  00050 48e7            movem.l a2-a3/d0-d1/d4,-(sp) 
   41  00054 2440            movea.l d0,a2      
   42  00056 2641            movea.l d1,a3      
   43  00058 282f            move.l 28(sp),d4  
   44  0005c 6002            bra.s  L00060     
   45  0005e 14db L0005e     move.b (a3)+,(a2)+ 
   46  00060 5344 L00060     subq.w #1,d4      
   47  00062 6cfa            bge.s  L0005e     
   48  00064 200a            move.l a2,d0      
   49  00066 4ced            movem.l -12(a5),a2-a3/d4 
   50  0006c 4e5d            unlk   a5         
   51  0006e 4e75            rts               
   52  00070 4e55 os9exec:   link.w a5,#0      
   53  00074 48e7            movem.l a0/a2-a4/d0-d1/d4-d7,-(sp) 
   54  00078 4fef            lea    -12(sp),sp 
   55  0007c 7000            moveq  #0,d0      
   56  0007e 3f40            move.w d0,10(sp)  
   57  00082 3f40            move.w d0,4(sp)   
   58  00086 3f40            move.w d0,6(sp)   
   59  0008a 7200            moveq  #0,d1      
   60  0008c 3200            move.w d0,d1      
   61  0008e 2a01            move.l d1,d5      
   62  00090 2801            move.l d1,d4      
   63  00092 2c01            move.l d1,d6      
   64  00094 206f            movea.l 60(sp),a0  
   65  00098 2010            move.l (a0),d0    
   66  0009a 6100            bsr.w  strlen     
   67  0009e 5280            addq.l #1,d0      
   68  000a0 2e00            move.l d0,d7      
   69  000a2 7001            moveq  #1,d0      
   70  000a4 c047            and.w  d7,d0      
   71  000a6 3f40            move.w d0,8(sp)   
   72  000aa 202f            move.l 60(sp),d0  
   73  000ae 5880            addq.l #4,d0      
   74  000b0 2640            movea.l d0,a3      
   75  000b2 600e            bra.s  L000c2     
   76  000b4 2013 L000b4     move.l (a3),d0    
   77  000b6 6100            bsr.w  strlen     
   78  000ba d880            add.l  d0,d4      
   79  000bc 588b            addq.l #4,a3      
   80  000be 526f            addq.w #1,6(sp)   
   81  000c2 4a93 L000c2     tst.l  (a3)       
   82  000c4 66ee            bne.s  L000b4     
   83  000c6 266f            movea.l 64(sp),a3  
   84  000ca 600e            bra.s  L000da     
   85  000cc 2013 L000cc     move.l (a3),d0    
   86  000ce 6100            bsr.w  strlen     
   87  000d2 da80            add.l  d0,d5      
   88  000d4 588b            addq.l #4,a3      
   89  000d6 526f            addq.w #1,4(sp)   
   90  000da 4a93 L000da     tst.l  (a3)       
   91  000dc 66ee            bne.s  L000cc     
   92  000de 7000            moveq  #0,d0      
   93  000e0 302f            move.w 6(sp),d0   
   94  000e4 5280            addq.l #1,d0      
   95  000e6 d880            add.l  d0,d4      
   96  000e8 7000            moveq  #0,d0      
   97  000ea 302f            move.w 4(sp),d0   
   98  000ee da80            add.l  d0,d5      
   99  000f0 526f            addq.w #1,6(sp)   
  100  000f4 2004            move.l d4,d0      
  101  000f6 d085            add.l  d5,d0      
  102  000f8 0800            btst.l #0,d0      
  103  000fc 6704            beq.s  L00102     
  104  000fe 526f            addq.w #1,10(sp)  
  105  00102 2004 L00102     move.l d4,d0      
  106  00104 d085            add.l  d5,d0      
  107  00106 7200            moveq  #0,d1      
  108  00108 322f            move.w 10(sp),d1  
  109  0010c d081            add.l  d1,d0      
  110  0010e 5c80            addq.l #6,d0      
  111  00110 d087            add.l  d7,d0      
  112  00112 7200            moveq  #0,d1      
  113  00114 322f            move.w 8(sp),d1   
  114  00118 d081            add.l  d1,d0      
  115  0011a 5480            addq.l #2,d0      
  116  0011c 7200            moveq  #0,d1      
  117  0011e 322f            move.w 6(sp),d1   
  118  00122 e589            lsl.l  #2,d1      
  119  00124 d081            add.l  d1,d0      
  120  00126 7200            moveq  #0,d1      
  121  00128 322f            move.w 4(sp),d1   
  122  0012c e589            lsl.l  #2,d1      
  123  0012e d081            add.l  d1,d0      
  124  00130 5080            addq.l #8,d0      
  125  00132 2c00            move.l d0,d6      
  126  00134 41ee            lea    D00000(a6),a0 
  127  00138 2208            move.l a0,d1      
  128  0013a 2006            move.l d6,d0      
  129  0013c 6100            bsr.w  L00022     
  130  00140 2840            movea.l d0,a4      
  131  00142 2440            movea.l d0,a2      
  132  00144 72ff            moveq  #255,d1    
  133  00146 b280            cmp.l  d0,d1      
  134  00148 6606            bne.s  L00150     
  135  0014a 70ff            moveq  #255,d0    
  136  0014c 6000            bra.w  L0031a     
  137  00150 202f L00150     move.l 60(sp),d0  
  138  00154 5880            addq.l #4,d0      
  139  00156 2640            movea.l d0,a3      
  140  00158 600c            bra.s  L00166     
  141  0015a 2213 L0015a     move.l (a3),d1    
  142  0015c 200a            move.l a2,d0      
  143  0015e 6100            bsr.w  L00000     
  144  00162 2440            movea.l d0,a2      
  145  00164 588b            addq.l #4,a3      
  146  00166 4a93 L00166     tst.l  (a3)       
  147  00168 66f0            bne.s  L0015a     
  148  0016a 0c6f            cmpi.w #1,6(sp)   
  149  00170 6304            bls.s  L00176     
  150  00172 422a            clr.b  -1(a2)     
  151  00176 14fc L00176     move.b #13,(a2)+  
  152  0017a 4a6f            tst.w  10(sp)     
  153  0017e 6702            beq.s  L00182     
  154  00180 421a            clr.b  (a2)+      
  155  00182 266f L00182     movea.l 64(sp),a3  
  156  00186 600c            bra.s  L00194     
  157  00188 2213 L00188     move.l (a3),d1    
  158  0018a 200a            move.l a2,d0      
  159  0018c 6100            bsr.w  L00000     
  160  00190 2440            movea.l d0,a2      
  161  00192 588b            addq.l #4,a3      
  162  00194 4a93 L00194     tst.l  (a3)       
  163  00196 66f0            bne.s  L00188     
  164  00198 422a            clr.b  -1(a2)     
  165  0019c 2ebc            move.l #64513,(sp) 
  166  001a2 4878            pea    (L00002).w 
  167  001a6 41ef            lea    6(sp),a0   
  168  001aa 2208            move.l a0,d1      
  169  001ac 200a            move.l a2,d0      
  170  001ae 6100            bsr.w  L0004c     
  171  001b2 588f            addq.l #4,sp      
  172  001b4 2440            movea.l d0,a2      
  173  001b6 2004            move.l d4,d0      
  174  001b8 d085            add.l  d5,d0      
  175  001ba 7200            moveq  #0,d1      
  176  001bc 322f            move.w 10(sp),d1  
  177  001c0 d081            add.l  d1,d0      
  178  001c2 5c80            addq.l #6,d0      
  179  001c4 2e80            move.l d0,(sp)    
  180  001c6 4878            pea    (L00004).w 
  181  001ca 41ef            lea    4(sp),a0   
  182  001ce 2208            move.l a0,d1      
  183  001d0 200a            move.l a2,d0      
  184  001d2 6100            bsr.w  L0004c     
  185  001d6 588f            addq.l #4,sp      
  186  001d8 2440            movea.l d0,a2      
  187  001da 206f            movea.l 60(sp),a0  
  188  001de 2210            move.l (a0),d1    
  189  001e0 200a            move.l a2,d0      
  190  001e2 6100            bsr.w  L00000     
  191  001e6 2440            movea.l d0,a2      
  192  001e8 422a            clr.b  -1(a2)     
  193  001ec 4a6f            tst.w  8(sp)      
  194  001f0 6702            beq.s  L001f4     
  195  001f2 421a            clr.b  (a2)+      
  196  001f4 421a L001f4     clr.b  (a2)+      
  197  001f6 14fc            move.b #13,(a2)+  
  198  001fa 4297            clr.l  (sp)       
  199  001fc 4878            pea    (L00004).w 
  200  00200 41ef            lea    4(sp),a0   
  201  00204 2208            move.l a0,d1      
  202  00206 200a            move.l a2,d0      
  203  00208 6100            bsr.w  L0004c     
  204  0020c 588f            addq.l #4,sp      
  205  0020e 2440            movea.l d0,a2      
  206  00210 202f            move.l 60(sp),d0  
  207  00214 5880            addq.l #4,d0      
  208  00216 2640            movea.l d0,a3      
  209  00218 6020            bra.s  L0023a     
  210  0021a 4878 L0021a     pea    (L00004).w 
  211  0021e 41ef            lea    4(sp),a0   
  212  00222 2208            move.l a0,d1      
  213  00224 200a            move.l a2,d0      
  214  00226 6100            bsr.w  L0004c     
  215  0022a 588f            addq.l #4,sp      
  216  0022c 2440            movea.l d0,a2      
  217  0022e 2013            move.l (a3),d0    
  218  00230 6100            bsr.w  strlen     
  219  00234 5280            addq.l #1,d0      
  220  00236 d197            add.l  d0,(sp)    
  221  00238 588b            addq.l #4,a3      
  222  0023a 4a93 L0023a     tst.l  (a3)       
  223  0023c 66dc            bne.s  L0021a     
  224  0023e 4297            clr.l  (sp)       
  225  00240 4878            pea    (L00004).w 
  226  00244 41ef            lea    4(sp),a0   
  227  00248 2208            move.l a0,d1      
  228  0024a 200a            move.l a2,d0      
  229  0024c 6100            bsr.w  L0004c     
  230  00250 588f            addq.l #4,sp      
  231  00252 2440            movea.l d0,a2      
  232  00254 7000            moveq  #0,d0      
  233  00256 302f            move.w 10(sp),d0  
  234  0025a d084            add.l  d4,d0      
  235  0025c 2e80            move.l d0,(sp)    
  236  0025e 266f            movea.l 64(sp),a3  
  237  00262 6020            bra.s  L00284     
  238  00264 4878 L00264     pea    (L00004).w 
  239  00268 41ef            lea    4(sp),a0   
  240  0026c 2208            move.l a0,d1      
  241  0026e 200a            move.l a2,d0      
  242  00270 6100            bsr.w  L0004c     
  243  00274 588f            addq.l #4,sp      
  244  00276 2440            movea.l d0,a2      
  245  00278 2013            move.l (a3),d0    
  246  0027a 6100            bsr.w  strlen     
  247  0027e 5280            addq.l #1,d0      
  248  00280 d197            add.l  d0,(sp)    
  249  00282 588b            addq.l #4,a3      
  250  00284 4a93 L00284     tst.l  (a3)       
  251  00286 66dc            bne.s  L00264     
  252  00288 4297            clr.l  (sp)       
  253  0028a 4878            pea    (L00004).w 
  254  0028e 41ef            lea    4(sp),a0   
  255  00292 2208            move.l a0,d1      
  256  00294 200a            move.l a2,d0      
  257  00296 6100            bsr.w  L0004c     
  258  0029a 588f            addq.l #4,sp      
  259  0029c 2440            movea.l d0,a2      
  260  0029e 95ca            suba.l a2,a2      
  261  002a0 426f            clr.w  10(sp)     
  262  002a4 4fed L002a4     lea    -52(a5),sp 
  263  002a8 306f            movea.w 78(sp),a0  
  264  002ac 2f08            move.l a0,-(sp)   
  265  002ae 306f            movea.w 78(sp),a0  
  266  002b2 2f08            move.l a0,-(sp)   
  267  002b4 2f2f            move.l 76(sp),-(sp) 
  268  002b8 42a7            clr.l  -(sp)      
  269  002ba 42a7            clr.l  -(sp)      
  270  002bc 4854            pea    (a4)       
  271  002be 2206            move.l d6,d1      
  272  002c0 202f            move.l 40(sp),d0  
  273  002c4 206f            movea.l 36(sp),a0  
  274  002c8 4e90            jsr    (a0)       
  275  002ca 4fef            lea    24(sp),sp  
  276  002ce 2e80            move.l d0,(sp)    
  277  002d0 72ff            moveq  #255,d1    
  278  002d2 b280            cmp.l  d0,d1      
  279  002d4 662e            bne.s  L00304     
  280  002d6 0cae            cmpi.l #216,errno(a6) 
  281  002de 6624            bne.s  L00304     
  282  002e0 302f            move.w 10(sp),d0  
  283  002e4 526f            addq.w #1,10(sp)  
  284  002e8 4a40            tst.w  d0         
  285  002ea 6618            bne.s  L00304     
  286  002ec 42a7            clr.l  -(sp)      
  287  002ee 7200            moveq  #0,d1      
  288  002f0 202f            move.l 20(sp),d0  
  289  002f4 6100            bsr.w  modloadp   
  290  002f8 588f            addq.l #4,sp      
  291  002fa 2440            movea.l d0,a2      
  292  002fc 72ff            moveq  #255,d1    
  293  002fe b280            cmp.l  d0,d1      
  294  00300 66a2            bne.s  L002a4     
  295  00302 95ca            suba.l a2,a2      
  296  00304 200a L00304     move.l a2,d0      
  297  00306 6706            beq.s  L0030e     
  298  00308 200a            move.l a2,d0      
  299  0030a 6100            bsr.w  munlink    
  300  0030e 220c L0030e     move.l a4,d1      
  301  00310 202e            move.l D00000(a6),d0 
  302  00314 6100            bsr.w  L00040     
  303  00318 2017            move.l (sp),d0    
  304  0031a 4fef L0031a     lea    12(sp),sp  
  305  0031e 4ced            movem.l -32(a5),a0/a2-a4/d4-d7 
  306  00324 4e5d            unlk   a5         
  307  00326 4e75            rts               
  308
  309  00328 0000            ends              
  310
