    0  00000 0000            psect  strings_c,0,0,0,0,strcmp 
    1
    2  00000 2f08 strcmp:    move.l a0,-(sp)   
    3  00002 2040            movea.l d0,a0      
    4  00004 b300            eor.b  d1,d0      
    5  00006 0800            btst.l #0,d0      
    6  0000a 6652            bne.s  L0005e     
    7  0000c 0801            btst.l #0,d1      
    8  00010 c389            exg    d1,a1      
    9  00012 6718            beq.s  L0002c     
   10  00014 b109            cmpm.b (a1)+,(a0)+ 
   11  00016 6530            bcs.s  L00048     
   12  00018 6220            bhi.s  L0003a     
   13  0001a 4a28            tst.b  -1(a0)     
   14  0001e 660c            bne.s  L0002c     
   15  00020 6034            bra.s  L00056     
   16  00022 4a00 L00022     tst.b  d0         
   17  00024 6730            beq.s  L00056     
   18  00026 0c40            cmpi.w #255,d0    
   19  0002a 632a            bls.s  L00056     
   20  0002c 3018 L0002c     move.w (a0)+,d0   
   21  0002e b059            cmp.w  (a1)+,d0   
   22  00030 67f0            beq.s  L00022     
   23  00032 650e            bcs.s  L00042     
   24  00034 0c40            cmpi.w #255,d0    
   25  00038 6316            bls.s  L00050     
   26  0003a 7001 L0003a     moveq  #1,d0      
   27  0003c 205f            movea.l (sp)+,a0   
   28  0003e c389            exg    d1,a1      
   29  00040 4e75            rts               
   30  00042 0c40 L00042     cmpi.w #255,d0    
   31  00046 6308            bls.s  L00050     
   32  00048 70ff L00048     moveq  #255,d0    
   33  0004a 205f            movea.l (sp)+,a0   
   34  0004c c389            exg    d1,a1      
   35  0004e 4e75            rts               
   36  00050 4a29 L00050     tst.b  -2(a1)     
   37  00054 66f2            bne.s  L00048     
   38  00056 7000 L00056     moveq  #0,d0      
   39  00058 205f            movea.l (sp)+,a0   
   40  0005a c389            exg    d1,a1      
   41  0005c 4e75            rts               
   42  0005e c389 L0005e     exg    d1,a1      
   43  00060 7000            moveq  #0,d0      
   44  00062 1018 L00062     move.b (a0)+,d0   
   45  00064 b019            cmp.b  (a1)+,d0   
   46  00066 56c8            dbne   d0,L00062  
   47  0006a 65dc            bcs.s  L00048     
   48  0006c 5240            addq.w #1,d0      
   49  0006e 205f            movea.l (sp)+,a0   
   50  00070 c389            exg    d1,a1      
   51  00072 4e75            rts               
   52  00074 2f08 strlen:    move.l a0,-(sp)   
   53  00076 2040            movea.l d0,a0      
   54  00078 4a18 L00078     tst.b  (a0)+      
   55  0007a 670c            beq.s  L00088     
   56  0007c 4a18            tst.b  (a0)+      
   57  0007e 6708            beq.s  L00088     
   58  00080 4a18            tst.b  (a0)+      
   59  00082 6704            beq.s  L00088     
   60  00084 4a18            tst.b  (a0)+      
   61  00086 66f0            bne.s  L00078     
   62  00088 91c0 L00088     suba.l d0,a0      
   63  0008a 2008            move.l a0,d0      
   64  0008c 5380            subq.l #1,d0      
   65  0008e 205f            movea.l (sp)+,a0   
   66  00090 4e75            rts               
   67  00092 2f08 strcpy:    move.l a0,-(sp)   
   68  00094 2040            movea.l d0,a0      
   69  00096 c389            exg    d1,a1      
   70  00098 10d9 L00098     move.b (a1)+,(a0)+ 
   71  0009a 670c            beq.s  L000a8     
   72  0009c 10d9            move.b (a1)+,(a0)+ 
   73  0009e 6708            beq.s  L000a8     
   74  000a0 10d9            move.b (a1)+,(a0)+ 
   75  000a2 6704            beq.s  L000a8     
   76  000a4 10d9            move.b (a1)+,(a0)+ 
   77  000a6 66f0            bne.s  L00098     
   78  000a8 205f L000a8     movea.l (sp)+,a0   
   79  000aa c389            exg    d1,a1      
   80  000ac 4e75            rts               
   81  000ae 2f08 strcat:    move.l a0,-(sp)   
   82  000b0 2040            movea.l d0,a0      
   83  000b2 c389            exg    d1,a1      
   84  000b4 4a18 L000b4     tst.b  (a0)+      
   85  000b6 670c            beq.s  L000c4     
   86  000b8 4a18            tst.b  (a0)+      
   87  000ba 6708            beq.s  L000c4     
   88  000bc 4a18            tst.b  (a0)+      
   89  000be 6704            beq.s  L000c4     
   90  000c0 4a18            tst.b  (a0)+      
   91  000c2 66f0            bne.s  L000b4     
   92  000c4 1159 L000c4     move.b (a1)+,-1(a0) 
   93  000c8 66ce            bne.s  L00098     
   94  000ca 60dc            bra.s  L000a8     
   95  000cc 2f08 strhcpy:   move.l a0,-(sp)   
   96  000ce 2040            movea.l d0,a0      
   97  000d0 c389            exg    d1,a1      
   98  000d2 10d9 L000d2     move.b (a1)+,(a0)+ 
   99  000d4 6afc            bpl.s  L000d2     
  100  000d6 4210            clr.b  (a0)       
  101  000d8 0220            andi.b #$7f,-(a0) 
  102  000dc 205f            movea.l (sp)+,a0   
  103  000de c389            exg    d1,a1      
  104  000e0 4e75            rts               
  105
  106  000e2 0000            ends              
  106
