    0  00000 0000            psect  system_c,0,0,0,0,system 
    1
    2  00000 4e55 system:    link.w a5,#0      
    3  00004 48e7            movem.l a0/a2/d0-d2/d4-d5,-(sp) 
    4  00008 2440            movea.l d0,a2      
    5  0000a 4fef            lea    -20(sp),sp 
    6  0000e 4297            clr.l  (sp)       
    7  00010 41fa            lea    L000b6(pc),a0 
    8  00014 2008            move.l a0,d0      
    9  00016 6100            bsr.w  getenv     
   10  0001a 2f40            move.l d0,4(sp)   
   11  0001e 6608            bne.s  L00028     
   12  00020 41fa            lea    L000bc(pc),a0 
   13  00024 2f48            move.l a0,4(sp)   
   14  00028 200a L00028     move.l a2,d0      
   15  0002a 6632            bne.s  L0005e     
   16  0002c 7200            moveq  #0,d1      
   17  0002e 202f            move.l 4(sp),d0   
   18  00032 6100            bsr.w  modlink    
   19  00036 72ff            moveq  #255,d1    
   20  00038 b280            cmp.l  d0,d1      
   21  0003a 6614            bne.s  L00050     
   22  0003c 2401            move.l d1,d2      
   23  0003e 42a7            clr.l  -(sp)      
   24  00040 7200            moveq  #0,d1      
   25  00042 202f            move.l 8(sp),d0   
   26  00046 6100            bsr.w  modloadp   
   27  0004a 588f            addq.l #4,sp      
   28  0004c b480            cmp.l  d0,d2      
   29  0004e 6756            beq.s  L000a6     
   30  00050 7200 L00050     moveq  #0,d1      
   31  00052 202f            move.l 4(sp),d0   
   32  00056 6100            bsr.w  munload    
   33  0005a 5297            addq.l #1,(sp)    
   34  0005c 6048            bra.s  L000a6     
   35  0005e 2f6f L0005e     move.l 4(sp),8(sp) 
   36  00064 2f4a            move.l a2,12(sp)  
   37  00068 42af            clr.l  16(sp)     
   38  0006c 42a7            clr.l  -(sp)      
   39  0006e 42a7            clr.l  -(sp)      
   40  00070 42a7            clr.l  -(sp)      
   41  00072 2f2e            move.l environ(a6),-(sp) 
   42  00076 486f            pea    24(sp)     
   43  0007a 222f            move.l 28(sp),d1  
   44  0007e 41fa            lea    os9fork(pc),a0 
   45  00082 2008            move.l a0,d0      
   46  00084 6100            bsr.w  os9exec    
   47  00088 4fef            lea    20(sp),sp  
   48  0008c 2800            move.l d0,d4      
   49  0008e 70ff            moveq  #255,d0    
   50  00090 b084            cmp.l  d4,d0      
   51  00092 6606            bne.s  L0009a     
   52  00094 202e            move.l errno(a6),d0 
   53  00098 600e            bra.s  L000a8     
   54  0009a 41d7 L0009a     lea    (sp),a0    
   55  0009c 2008            move.l a0,d0      
   56  0009e 6100            bsr.w  wait       
   57  000a2 b084            cmp.l  d4,d0      
   58  000a4 66f4            bne.s  L0009a     
   59  000a6 2017 L000a6     move.l (sp),d0    
   60  000a8 4fef L000a8     lea    20(sp),sp  
   61  000ac 4ced            movem.l -24(a5),a0/a2/d1-d2/d4-d5 
   62  000b2 4e5d            unlk   a5         
   63  000b4 4e75            rts               
   64  000b6 5348 L000b6     subq.w #1,a0      
   65  000b8 454c            dc.w   $454c      
   66  000ba 4c00            dc.w   $4c00      
   67  000bc 7368 L000bc     dc.w   $7368      
   68  000be 656c            bcs.s  L0012c     
   69  000c0 6c00            dc.w   $6c00      
   70
   71  000c2 0000            ends              
   72
